(lp0
I47042
aI47189
aI47208
aI47209
aI46553
aI46466
aI47202
aI47180
aI47201
aI47023
aI47345
aI47344
aI46903
aI46904
aI45969
aI47252
aI47259
aI47258
aI46752
aI46751
aI47099
aI47238
aI47053
aI47050
aI46735
aI47211
aI47210
aI47190
aI47037
aI47138
aI46911
aI47070
aI47246
aI47245
aI47249
aI45441
a.